target datalayout = "e-m:e-p270:32:32-p271:32:32-p272:64:64-i64:64-i128:128-f80:128-n8:16:32:64-S128"
target triple = "x86_64-unknown-linux-gnu"

%class.b3Vector3 = type { %union.anon }
%union.anon = type { [4 x float] }
%class.b3Matrix3x3 = type { [3 x %class.b3Vector3] }

; Function Attrs: mustprogress nounwind uwtable
define linkonce_odr dso_local void @_ZN9b3Vector38setValueERKfS1_S1_(ptr noundef nonnull align 16 dereferenceable(16) %this, ptr noundef nonnull align 4 dereferenceable(4) %_x, ptr noundef nonnull align 4 dereferenceable(4) %_y, ptr noundef nonnull align 4 dereferenceable(4) %_z) #1 comdat align 2 {
entry:
  %this.addr = alloca ptr, align 8
  %_x.addr = alloca ptr, align 8
  %_y.addr = alloca ptr, align 8
  %_z.addr = alloca ptr, align 8
  store ptr %this, ptr %this.addr, align 8
  store ptr %_x, ptr %_x.addr, align 8
  store ptr %_y, ptr %_y.addr, align 8
  store ptr %_z, ptr %_z.addr, align 8
  %this1 = load ptr, ptr %this.addr, align 8
  %0 = load ptr, ptr %_x.addr, align 8
  %1 = load float, ptr %0, align 4
  %2 = getelementptr inbounds %class.b3Vector3, ptr %this1, i32 0, i32 0
  %arrayidx = getelementptr inbounds [4 x float], ptr %2, i64 0, i64 0
  store float %1, ptr %arrayidx, align 16
  %3 = load ptr, ptr %_y.addr, align 8
  %4 = load float, ptr %3, align 4
  %5 = getelementptr inbounds %class.b3Vector3, ptr %this1, i32 0, i32 0
  %arrayidx2 = getelementptr inbounds [4 x float], ptr %5, i64 0, i64 1
  store float %4, ptr %arrayidx2, align 4
  %6 = load ptr, ptr %_z.addr, align 8
  %7 = load float, ptr %6, align 4
  %8 = getelementptr inbounds %class.b3Vector3, ptr %this1, i32 0, i32 0
  %arrayidx3 = getelementptr inbounds [4 x float], ptr %8, i64 0, i64 2
  store float %7, ptr %arrayidx3, align 8
  %9 = getelementptr inbounds %class.b3Vector3, ptr %this1, i32 0, i32 0
  %arrayidx4 = getelementptr inbounds [4 x float], ptr %9, i64 0, i64 3
  store float 0.000000e+00, ptr %arrayidx4, align 4
  ret void
}

; Function Attrs: mustprogress nounwind uwtable
define linkonce_odr dso_local { <2 x float>, <2 x float> } @_Z13b3MakeVector3fff(float noundef %x, float noundef %y, float noundef %z) #1 comdat {
entry:
  %retval = alloca %class.b3Vector3, align 16
  %x.addr = alloca float, align 4
  %y.addr = alloca float, align 4
  %z.addr = alloca float, align 4
  store float %x, ptr %x.addr, align 4
  store float %y, ptr %y.addr, align 4
  store float %z, ptr %z.addr, align 4
  call void @_ZN9b3Vector38setValueERKfS1_S1_(ptr noundef nonnull align 16 dereferenceable(16) %retval, ptr noundef nonnull align 4 dereferenceable(4) %x.addr, ptr noundef nonnull align 4 dereferenceable(4) %y.addr, ptr noundef nonnull align 4 dereferenceable(4) %z.addr)
  %coerce.dive = getelementptr inbounds %class.b3Vector3, ptr %retval, i32 0, i32 0
  %coerce.dive1 = getelementptr inbounds %union.anon, ptr %coerce.dive, i32 0, i32 0
  %0 = load { <2 x float>, <2 x float> }, ptr %coerce.dive1, align 16
  ret { <2 x float>, <2 x float> } %0
}

; Function Attrs: mustprogress nounwind uwtable
define linkonce_odr dso_local noundef nonnull align 16 dereferenceable(16) ptr @_ZNK11b3Matrix3x3ixEi(ptr noundef nonnull align 16 dereferenceable(48) %this, i32 noundef %i) #1 comdat align 2 {
entry:
  %this.addr = alloca ptr, align 8
  %i.addr = alloca i32, align 4
  store ptr %this, ptr %this.addr, align 8
  store i32 %i, ptr %i.addr, align 4
  %this1 = load ptr, ptr %this.addr, align 8
  %m_el = getelementptr inbounds %class.b3Matrix3x3, ptr %this1, i32 0, i32 0
  %0 = load i32, ptr %i.addr, align 4
  %idxprom = sext i32 %0 to i64
  %arrayidx = getelementptr inbounds [3 x %class.b3Vector3], ptr %m_el, i64 0, i64 %idxprom
  ret ptr %arrayidx
}

; Function Attrs: mustprogress nounwind uwtable
define linkonce_odr dso_local noundef float @_ZNK9b3Vector33dotERKS_(ptr noundef nonnull align 16 dereferenceable(16) %this, ptr noundef nonnull align 16 dereferenceable(16) %v) #1 comdat align 2 {
entry:
  %this.addr = alloca ptr, align 8
  %v.addr = alloca ptr, align 8
  store ptr %this, ptr %this.addr, align 8
  store ptr %v, ptr %v.addr, align 8
  %this1 = load ptr, ptr %this.addr, align 8
  %0 = getelementptr inbounds %class.b3Vector3, ptr %this1, i32 0, i32 0
  %arrayidx = getelementptr inbounds [4 x float], ptr %0, i64 0, i64 0
  %1 = load float, ptr %arrayidx, align 16
  %2 = load ptr, ptr %v.addr, align 8
  %3 = getelementptr inbounds %class.b3Vector3, ptr %2, i32 0, i32 0
  %arrayidx2 = getelementptr inbounds [4 x float], ptr %3, i64 0, i64 0
  %4 = load float, ptr %arrayidx2, align 16
  %5 = getelementptr inbounds %class.b3Vector3, ptr %this1, i32 0, i32 0
  %arrayidx3 = getelementptr inbounds [4 x float], ptr %5, i64 0, i64 1
  %6 = load float, ptr %arrayidx3, align 4
  %7 = load ptr, ptr %v.addr, align 8
  %8 = getelementptr inbounds %class.b3Vector3, ptr %7, i32 0, i32 0
  %arrayidx4 = getelementptr inbounds [4 x float], ptr %8, i64 0, i64 1
  %9 = load float, ptr %arrayidx4, align 4
  %mul5 = fmul float %6, %9
  %10 = call float @llvm.fmuladd.f32(float %1, float %4, float %mul5)
  %11 = getelementptr inbounds %class.b3Vector3, ptr %this1, i32 0, i32 0
  %arrayidx6 = getelementptr inbounds [4 x float], ptr %11, i64 0, i64 2
  %12 = load float, ptr %arrayidx6, align 8
  %13 = load ptr, ptr %v.addr, align 8
  %14 = getelementptr inbounds %class.b3Vector3, ptr %13, i32 0, i32 0
  %arrayidx7 = getelementptr inbounds [4 x float], ptr %14, i64 0, i64 2
  %15 = load float, ptr %arrayidx7, align 8
  %16 = call float @llvm.fmuladd.f32(float %12, float %15, float %10)
  ret float %16
}

; Function Attrs: mustprogress uwtable
define linkonce_odr dso_local { <2 x float>, <2 x float> } @_ZmlRK11b3Matrix3x3RK9b3Vector3(ptr noundef nonnull align 16 dereferenceable(48) %m, ptr noundef nonnull align 16 dereferenceable(16) %v) #3 comdat {
entry:
  %retval = alloca %class.b3Vector3, align 16
  %m.addr = alloca ptr, align 8
  %v.addr = alloca ptr, align 8
  store ptr %m, ptr %m.addr, align 8
  store ptr %v, ptr %v.addr, align 8
  %0 = load ptr, ptr %m.addr, align 8
  %call = call noundef nonnull align 16 dereferenceable(16) ptr @_ZNK11b3Matrix3x3ixEi(ptr noundef nonnull align 16 dereferenceable(48) %0, i32 noundef 0)
  %1 = load ptr, ptr %v.addr, align 8
  %call1 = call noundef float @_ZNK9b3Vector33dotERKS_(ptr noundef nonnull align 16 dereferenceable(16) %call, ptr noundef nonnull align 16 dereferenceable(16) %1)
  %2 = load ptr, ptr %m.addr, align 8
  %call2 = call noundef nonnull align 16 dereferenceable(16) ptr @_ZNK11b3Matrix3x3ixEi(ptr noundef nonnull align 16 dereferenceable(48) %2, i32 noundef 1)
  %3 = load ptr, ptr %v.addr, align 8
  %call3 = call noundef float @_ZNK9b3Vector33dotERKS_(ptr noundef nonnull align 16 dereferenceable(16) %call2, ptr noundef nonnull align 16 dereferenceable(16) %3)
  %4 = load ptr, ptr %m.addr, align 8
  %call4 = call noundef nonnull align 16 dereferenceable(16) ptr @_ZNK11b3Matrix3x3ixEi(ptr noundef nonnull align 16 dereferenceable(48) %4, i32 noundef 2)
  %5 = load ptr, ptr %v.addr, align 8
  %call5 = call noundef float @_ZNK9b3Vector33dotERKS_(ptr noundef nonnull align 16 dereferenceable(16) %call4, ptr noundef nonnull align 16 dereferenceable(16) %5)
  %call6 = call { <2 x float>, <2 x float> } @_Z13b3MakeVector3fff(float noundef %call1, float noundef %call3, float noundef %call5)
  %coerce.dive = getelementptr inbounds %class.b3Vector3, ptr %retval, i32 0, i32 0
  %coerce.dive7 = getelementptr inbounds %union.anon, ptr %coerce.dive, i32 0, i32 0
  %6 = getelementptr inbounds { <2 x float>, <2 x float> }, ptr %coerce.dive7, i32 0, i32 0
  %7 = extractvalue { <2 x float>, <2 x float> } %call6, 0
  store <2 x float> %7, ptr %6, align 16
  %8 = getelementptr inbounds { <2 x float>, <2 x float> }, ptr %coerce.dive7, i32 0, i32 1
  %9 = extractvalue { <2 x float>, <2 x float> } %call6, 1
  store <2 x float> %9, ptr %8, align 8
  %coerce.dive8 = getelementptr inbounds %class.b3Vector3, ptr %retval, i32 0, i32 0
  %coerce.dive9 = getelementptr inbounds %union.anon, ptr %coerce.dive8, i32 0, i32 0
  %10 = load { <2 x float>, <2 x float> }, ptr %coerce.dive9, align 16
  ret { <2 x float>, <2 x float> } %10
}

; Function Attrs: mustprogress uwtable
define linkonce_odr dso_local noundef float @_Z5b3DotRK9b3Vector3S1_(ptr noundef nonnull align 16 dereferenceable(16) %v1, ptr noundef nonnull align 16 dereferenceable(16) %v2) #0 comdat {
entry:
  %v1.addr = alloca ptr, align 8
  %v2.addr = alloca ptr, align 8
  store ptr %v1, ptr %v1.addr, align 8
  store ptr %v2, ptr %v2.addr, align 8
  %0 = load ptr, ptr %v1.addr, align 8
  %1 = load ptr, ptr %v2.addr, align 8
  %call = call noundef float @_ZNK9b3Vector33dotERKS_(ptr noundef nonnull align 16 dereferenceable(16) %0, ptr noundef nonnull align 16 dereferenceable(16) %1)
  ret float %call
}

; Function Attrs: mustprogress uwtable
define linkonce_odr dso_local { <2 x float>, <2 x float> } @_Z6mtMul3RK9b3Vector3RK11b3Matrix3x3(ptr noundef nonnull align 16 dereferenceable(16) %a, ptr noundef nonnull align 16 dereferenceable(48) %b) #3 comdat {
entry:
  %retval = alloca %class.b3Vector3, align 16
  %a.addr = alloca ptr, align 8
  %b.addr = alloca ptr, align 8
  store ptr %a, ptr %a.addr, align 8
  store ptr %b, ptr %b.addr, align 8
  %0 = load ptr, ptr %b.addr, align 8
  %1 = load ptr, ptr %a.addr, align 8
  %call = call { <2 x float>, <2 x float> } @_ZmlRK11b3Matrix3x3RK9b3Vector3(ptr noundef nonnull align 16 dereferenceable(48) %0, ptr noundef nonnull align 16 dereferenceable(16) %1)
  %coerce.dive = getelementptr inbounds %class.b3Vector3, ptr %retval, i32 0, i32 0
  %coerce.dive1 = getelementptr inbounds %union.anon, ptr %coerce.dive, i32 0, i32 0
  %2 = getelementptr inbounds { <2 x float>, <2 x float> }, ptr %coerce.dive1, i32 0, i32 0
  %3 = extractvalue { <2 x float>, <2 x float> } %call, 0
  store <2 x float> %3, ptr %2, align 16
  %4 = getelementptr inbounds { <2 x float>, <2 x float> }, ptr %coerce.dive1, i32 0, i32 1
  %5 = extractvalue { <2 x float>, <2 x float> } %call, 1
  store <2 x float> %5, ptr %4, align 8
  %coerce.dive2 = getelementptr inbounds %class.b3Vector3, ptr %retval, i32 0, i32 0
  %coerce.dive3 = getelementptr inbounds %union.anon, ptr %coerce.dive2, i32 0, i32 0
  %6 = load { <2 x float>, <2 x float> }, ptr %coerce.dive3, align 16
  ret { <2 x float>, <2 x float> } %6
}

; Function Attrs: mustprogress uwtable
define dso_local noundef float @_Z12calcJacCoeffRK9b3Vector3S1_S1_S1_fPK11b3Matrix3x3fS4_(ptr noundef nonnull align 16 dereferenceable(16) %linear0, ptr noundef nonnull align 16 dereferenceable(16) %linear1, ptr noundef nonnull align 16 dereferenceable(16) %angular0, ptr noundef nonnull align 16 dereferenceable(16) %angular1, float noundef %invMass0, ptr noundef %invInertia0, float noundef %invMass1, ptr noundef %invInertia1) #3 {
entry:
  %linear0.addr = alloca ptr, align 8
  %linear1.addr = alloca ptr, align 8
  %angular0.addr = alloca ptr, align 8
  %angular1.addr = alloca ptr, align 8
  %invMass0.addr = alloca float, align 4
  %invInertia0.addr = alloca ptr, align 8
  %invMass1.addr = alloca float, align 4
  %invInertia1.addr = alloca ptr, align 8
  %jmj0 = alloca float, align 4
  %jmj1 = alloca float, align 4
  %ref.tmp = alloca %class.b3Vector3, align 16
  %jmj2 = alloca float, align 4
  %jmj3 = alloca float, align 4
  %ref.tmp3 = alloca %class.b3Vector3, align 16
  store ptr %linear0, ptr %linear0.addr, align 8
  store ptr %linear1, ptr %linear1.addr, align 8
  store ptr %angular0, ptr %angular0.addr, align 8
  store ptr %angular1, ptr %angular1.addr, align 8
  store float %invMass0, ptr %invMass0.addr, align 4
  store ptr %invInertia0, ptr %invInertia0.addr, align 8
  store float %invMass1, ptr %invMass1.addr, align 4
  store ptr %invInertia1, ptr %invInertia1.addr, align 8
  %0 = load float, ptr %invMass0.addr, align 4
  store float %0, ptr %jmj0, align 4
  %1 = load ptr, ptr %angular0.addr, align 8
  %2 = load ptr, ptr %invInertia0.addr, align 8
  %call = call { <2 x float>, <2 x float> } @_Z6mtMul3RK9b3Vector3RK11b3Matrix3x3(ptr noundef nonnull align 16 dereferenceable(16) %1, ptr noundef nonnull align 16 dereferenceable(48) %2)
  %coerce.dive = getelementptr inbounds %class.b3Vector3, ptr %ref.tmp, i32 0, i32 0
  %coerce.dive1 = getelementptr inbounds %union.anon, ptr %coerce.dive, i32 0, i32 0
  %3 = getelementptr inbounds { <2 x float>, <2 x float> }, ptr %coerce.dive1, i32 0, i32 0
  %4 = extractvalue { <2 x float>, <2 x float> } %call, 0
  store <2 x float> %4, ptr %3, align 16
  %5 = getelementptr inbounds { <2 x float>, <2 x float> }, ptr %coerce.dive1, i32 0, i32 1
  %6 = extractvalue { <2 x float>, <2 x float> } %call, 1
  store <2 x float> %6, ptr %5, align 8
  %7 = load ptr, ptr %angular0.addr, align 8
  %call2 = call noundef float @_Z5b3DotRK9b3Vector3S1_(ptr noundef nonnull align 16 dereferenceable(16) %ref.tmp, ptr noundef nonnull align 16 dereferenceable(16) %7)
  store float %call2, ptr %jmj1, align 4
  %8 = load float, ptr %invMass1.addr, align 4
  store float %8, ptr %jmj2, align 4
  %9 = load ptr, ptr %angular1.addr, align 8
  %10 = load ptr, ptr %invInertia1.addr, align 8
  %call4 = call { <2 x float>, <2 x float> } @_Z6mtMul3RK9b3Vector3RK11b3Matrix3x3(ptr noundef nonnull align 16 dereferenceable(16) %9, ptr noundef nonnull align 16 dereferenceable(48) %10)
  %coerce.dive5 = getelementptr inbounds %class.b3Vector3, ptr %ref.tmp3, i32 0, i32 0
  %coerce.dive6 = getelementptr inbounds %union.anon, ptr %coerce.dive5, i32 0, i32 0
  %11 = getelementptr inbounds { <2 x float>, <2 x float> }, ptr %coerce.dive6, i32 0, i32 0
  %12 = extractvalue { <2 x float>, <2 x float> } %call4, 0
  store <2 x float> %12, ptr %11, align 16
  %13 = getelementptr inbounds { <2 x float>, <2 x float> }, ptr %coerce.dive6, i32 0, i32 1
  %14 = extractvalue { <2 x float>, <2 x float> } %call4, 1
  store <2 x float> %14, ptr %13, align 8
  %15 = load ptr, ptr %angular1.addr, align 8
  %call7 = call noundef float @_Z5b3DotRK9b3Vector3S1_(ptr noundef nonnull align 16 dereferenceable(16) %ref.tmp3, ptr noundef nonnull align 16 dereferenceable(16) %15)
  store float %call7, ptr %jmj3, align 4
  %16 = load float, ptr %jmj0, align 4
  %17 = load float, ptr %jmj1, align 4
  %add = fadd float %16, %17
  %18 = load float, ptr %jmj2, align 4
  %add8 = fadd float %add, %18
  %19 = load float, ptr %jmj3, align 4
  %add9 = fadd float %add8, %19
  %div = fdiv float -1.000000e+00, %add9
  ret float %div
}