; Function Attrs: mustprogress nofree norecurse nosync nounwind willreturn memory(argmem: read) uwtable
define dso_local noundef float @_Z12calcJacCoeffRK9b3Vector3S1_S1_S1_fPK11b3Matrix3x3fS4_(ptr nocapture noundef nonnull readnone align 16 dereferenceable(16) %linear0, ptr nocapture noundef nonnull readnone align 16 dereferenceable(16) %linear1, ptr nocapture noundef nonnull readonly align 16 dereferenceable(16) %angular0, ptr nocapture noundef nonnull readonly align 16 dereferenceable(16) %angular1, float noundef %invMass0, ptr nocapture noundef readonly %invInertia0, float noundef %invMass1, ptr nocapture noundef readonly %invInertia1) local_unnamed_addr #5 {
entry:
  %0 = load float, ptr %invInertia0, align 16
  %1 = load float, ptr %angular0, align 16
  %arrayidx3.i.i.i = getelementptr inbounds i8, ptr %invInertia0, i64 4
  %2 = load float, ptr %arrayidx3.i.i.i, align 4
  %arrayidx4.i.i.i = getelementptr inbounds i8, ptr %angular0, i64 4
  %3 = load float, ptr %arrayidx4.i.i.i, align 4
  %mul5.i.i.i = fmul float %2, %3
  %4 = tail call float @llvm.fmuladd.f32(float %0, float %1, float %mul5.i.i.i)
  %arrayidx6.i.i.i = getelementptr inbounds i8, ptr %invInertia0, i64 8
  %5 = load float, ptr %arrayidx6.i.i.i, align 8
  %arrayidx7.i.i.i = getelementptr inbounds i8, ptr %angular0, i64 8
  %6 = load float, ptr %arrayidx7.i.i.i, align 8
  %7 = tail call noundef float @llvm.fmuladd.f32(float %5, float %6, float %4)
  %arrayidx.i.i.i = getelementptr inbounds i8, ptr %invInertia0, i64 16
  %8 = load float, ptr %arrayidx.i.i.i, align 16
  %arrayidx3.i5.i.i = getelementptr inbounds i8, ptr %invInertia0, i64 20
  %9 = load float, ptr %arrayidx3.i5.i.i, align 4
  %mul5.i7.i.i = fmul float %3, %9
  %10 = tail call float @llvm.fmuladd.f32(float %8, float %1, float %mul5.i7.i.i)
  %arrayidx6.i8.i.i = getelementptr inbounds i8, ptr %invInertia0, i64 24
  %11 = load float, ptr %arrayidx6.i8.i.i, align 8
  %12 = tail call noundef float @llvm.fmuladd.f32(float %11, float %6, float %10)
  %arrayidx.i10.i.i = getelementptr inbounds i8, ptr %invInertia0, i64 32
  %13 = load float, ptr %arrayidx.i10.i.i, align 16
  %arrayidx3.i11.i.i = getelementptr inbounds i8, ptr %invInertia0, i64 36
  %14 = load float, ptr %arrayidx3.i11.i.i, align 4
  %mul5.i13.i.i = fmul float %3, %14
  %15 = tail call float @llvm.fmuladd.f32(float %13, float %1, float %mul5.i13.i.i)
  %arrayidx6.i14.i.i = getelementptr inbounds i8, ptr %invInertia0, i64 40
  %16 = load float, ptr %arrayidx6.i14.i.i, align 8
  %17 = tail call noundef float @llvm.fmuladd.f32(float %16, float %6, float %15)
  %mul5.i.i = fmul float %3, %12
  %18 = tail call float @llvm.fmuladd.f32(float %7, float %1, float %mul5.i.i)
  %19 = tail call noundef float @llvm.fmuladd.f32(float %17, float %6, float %18)
  %20 = load float, ptr %invInertia1, align 16
  %21 = load float, ptr %angular1, align 16
  %arrayidx3.i.i.i3 = getelementptr inbounds i8, ptr %invInertia1, i64 4
  %22 = load float, ptr %arrayidx3.i.i.i3, align 4
  %arrayidx4.i.i.i4 = getelementptr inbounds i8, ptr %angular1, i64 4
  %23 = load float, ptr %arrayidx4.i.i.i4, align 4
  %mul5.i.i.i5 = fmul float %22, %23
  %24 = tail call float @llvm.fmuladd.f32(float %20, float %21, float %mul5.i.i.i5)
  %arrayidx6.i.i.i6 = getelementptr inbounds i8, ptr %invInertia1, i64 8
  %25 = load float, ptr %arrayidx6.i.i.i6, align 8
  %arrayidx7.i.i.i7 = getelementptr inbounds i8, ptr %angular1, i64 8
  %26 = load float, ptr %arrayidx7.i.i.i7, align 8
  %27 = tail call noundef float @llvm.fmuladd.f32(float %25, float %26, float %24)
  %arrayidx.i.i.i8 = getelementptr inbounds i8, ptr %invInertia1, i64 16
  %28 = load float, ptr %arrayidx.i.i.i8, align 16
  %arrayidx3.i5.i.i9 = getelementptr inbounds i8, ptr %invInertia1, i64 20
  %29 = load float, ptr %arrayidx3.i5.i.i9, align 4
  %mul5.i7.i.i10 = fmul float %23, %29
  %30 = tail call float @llvm.fmuladd.f32(float %28, float %21, float %mul5.i7.i.i10)
  %arrayidx6.i8.i.i11 = getelementptr inbounds i8, ptr %invInertia1, i64 24
  %31 = load float, ptr %arrayidx6.i8.i.i11, align 8
  %32 = tail call noundef float @llvm.fmuladd.f32(float %31, float %26, float %30)
  %arrayidx.i10.i.i12 = getelementptr inbounds i8, ptr %invInertia1, i64 32
  %33 = load float, ptr %arrayidx.i10.i.i12, align 16
  %arrayidx3.i11.i.i13 = getelementptr inbounds i8, ptr %invInertia1, i64 36
  %34 = load float, ptr %arrayidx3.i11.i.i13, align 4
  %mul5.i13.i.i14 = fmul float %23, %34
  %35 = tail call float @llvm.fmuladd.f32(float %33, float %21, float %mul5.i13.i.i14)
  %arrayidx6.i14.i.i15 = getelementptr inbounds i8, ptr %invInertia1, i64 40
  %36 = load float, ptr %arrayidx6.i14.i.i15, align 8
  %37 = tail call noundef float @llvm.fmuladd.f32(float %36, float %26, float %35)
  %mul5.i.i23 = fmul float %23, %32
  %38 = tail call float @llvm.fmuladd.f32(float %27, float %21, float %mul5.i.i23)
  %39 = tail call noundef float @llvm.fmuladd.f32(float %37, float %26, float %38)
  %add = fadd float %19, %invMass0
  %add8 = fadd float %add, %invMass1
  %add9 = fadd float %add8, %39
  %div = fdiv float -1.000000e+00, %add9
  ret float %div
}